; Function Attrs: null_pointer_is_valid sspstrong uwtable
define internal void @sslkeylist_uats_ipaddr_tostr_cb(ptr noundef readonly captures(none) %0, ptr noundef writeonly captures(none) initializes((0, 8)) %1, ptr noundef writeonly captures(none) initializes((0, 4)) %2, ptr readnone captures(none) %3, ptr readnone captures(none) %4) #0 {
  %6 = load ptr, ptr %0, align 8
  %.not = icmp eq ptr %6, null
  br i1 %.not, label %12, label %7

7:                                                ; preds = %5
  %8 = tail call noalias ptr @g_strdup(ptr noundef nonnull %6)
  store ptr %8, ptr %1, align 8
  %9 = load ptr, ptr %0, align 8
  %10 = tail call i64 @strlen(ptr noundef %9) #16
  %11 = trunc i64 %10 to i32
  br label %14

12:                                               ; preds = %5
  %13 = tail call noalias ptr @g_strdup(ptr noundef nonnull @.str.26)
  store ptr %13, ptr %1, align 8
  br label %14

14:                                               ; preds = %12, %7
  %storemerge = phi i32 [ 0, %12 ], [ %11, %7 ]
  store i32 %storemerge, ptr %2, align 4
  ret void
}